target datalayout = "e-m:e-p270:32:32-p271:32:32-p272:64:64-i64:64-i128:128-f80:128-n8:16:32:64-S128"
target triple = "x86_64-pc-linux-gnu"

%struct.termios = type { i32, i32, i32, i32, i8, [32 x i8], i32, i32 }

@termios_spinlock = internal global i32 0, align 4
@orig_termios_fd = internal global i32 -1, align 4
@orig_termios = internal global %struct.termios zeroinitializer, align 4

; Function Attrs: nounwind uwtable
define hidden i32 @uv__tcsetattr(i32 noundef %0, i32 noundef %1, ptr noundef %2) #0 {
  %4 = alloca i32, align 4
  %5 = alloca i32, align 4
  %6 = alloca i32, align 4
  %7 = alloca ptr, align 8
  %8 = alloca i32, align 4
  %9 = alloca i32, align 4
  store i32 %0, ptr %5, align 4
  store i32 %1, ptr %6, align 4
  store ptr %2, ptr %7, align 8
  call void @llvm.lifetime.start.p0(i64 4, ptr %8) #6
  br label %10

10:                                               ; preds = %22, %3
  %11 = load i32, ptr %5, align 4
  %12 = load i32, ptr %6, align 4
  %13 = load ptr, ptr %7, align 8
  %14 = call i32 @tcsetattr(i32 noundef %11, i32 noundef %12, ptr noundef %13) #6
  store i32 %14, ptr %8, align 4
  br label %15

15:                                               ; preds = %10
  %16 = load i32, ptr %8, align 4
  %17 = icmp eq i32 %16, -1
  br i1 %17, label %18, label %22

18:                                               ; preds = %15
  %19 = call ptr @__errno_location() #7
  %20 = load i32, ptr %19, align 4
  %21 = icmp eq i32 %20, 4
  br label %22

22:                                               ; preds = %18, %15
  %23 = phi i1 [ false, %15 ], [ %21, %18 ]
  br i1 %23, label %10, label %24

24:                                               ; preds = %22
  %25 = load i32, ptr %8, align 4
  %26 = icmp eq i32 %25, -1
  br i1 %26, label %27, label %31

27:                                               ; preds = %24
  %28 = call ptr @__errno_location() #7
  %29 = load i32, ptr %28, align 4
  %30 = sub nsw i32 0, %29
  store i32 %30, ptr %4, align 4
  store i32 1, ptr %9, align 4
  br label %32

31:                                               ; preds = %24
  store i32 0, ptr %4, align 4
  store i32 1, ptr %9, align 4
  br label %32

32:                                               ; preds = %31, %27
  call void @llvm.lifetime.end.p0(i64 4, ptr %8) #6
  %33 = load i32, ptr %4, align 4
  ret i32 %33
}

; Function Attrs: nounwind uwtable
define dso_local i32 @uv_tty_reset_mode() #0 {
  %1 = alloca i32, align 4
  %2 = alloca i32, align 4
  %3 = alloca i32, align 4
  %4 = alloca i32, align 4
  %5 = alloca i32, align 4
  %6 = alloca i32, align 4
  %7 = alloca i32, align 4
  call void @llvm.lifetime.start.p0(i64 4, ptr %2) #6
  call void @llvm.lifetime.start.p0(i64 4, ptr %3) #6
  %8 = call ptr @__errno_location() #7
  %9 = load i32, ptr %8, align 4
  store i32 %9, ptr %2, align 4
  store i32 1, ptr %4, align 4
  %10 = load i32, ptr %4, align 4
  %11 = atomicrmw xchg ptr @termios_spinlock, i32 %10 seq_cst, align 4
  store i32 %11, ptr %5, align 4
  %12 = load i32, ptr %5, align 4
  %13 = icmp ne i32 %12, 0
  br i1 %13, label %14, label %15

14:                                               ; preds = %0
  store i32 -16, ptr %1, align 4
  store i32 1, ptr %6, align 4
  br label %26

15:                                               ; preds = %0
  store i32 0, ptr %3, align 4
  %16 = load i32, ptr @orig_termios_fd, align 4
  %17 = icmp ne i32 %16, -1
  br i1 %17, label %18, label %21

18:                                               ; preds = %15
  %19 = load i32, ptr @orig_termios_fd, align 4
  %20 = call i32 @uv__tcsetattr(i32 noundef %19, i32 noundef 0, ptr noundef @orig_termios)
  store i32 %20, ptr %3, align 4
  br label %21

21:                                               ; preds = %18, %15
  store i32 0, ptr %7, align 4
  %22 = load i32, ptr %7, align 4
  store atomic i32 %22, ptr @termios_spinlock seq_cst, align 4
  %23 = load i32, ptr %2, align 4
  %24 = call ptr @__errno_location() #7
  store i32 %23, ptr %24, align 4
  %25 = load i32, ptr %3, align 4
  store i32 %25, ptr %1, align 4
  store i32 1, ptr %6, align 4
  br label %26

26:                                               ; preds = %21, %14
  call void @llvm.lifetime.end.p0(i64 4, ptr %3) #6
  call void @llvm.lifetime.end.p0(i64 4, ptr %2) #6
  %27 = load i32, ptr %1, align 4
  ret i32 %27
}