; Function Attrs: nounwind uwtable
define dso_local range(i32 -2147483647, -2147483648) i32 @uv_tty_reset_mode() local_unnamed_addr #0 {
  %1 = tail call ptr @__errno_location() #9
  %2 = load i32, ptr %1, align 4
  %3 = atomicrmw xchg ptr @termios_spinlock, i32 1 seq_cst, align 4
  %.not = icmp eq i32 %3, 0
  br i1 %.not, label %4, label %12

4:                                                ; preds = %0
  %5 = load i32, ptr @orig_termios_fd, align 4
  %.not8 = icmp eq i32 %5, -1
  br i1 %.not8, label %uv__tcsetattr.exit, label %.preheader

.preheader:                                       ; preds = %4, %8
  %6 = tail call i32 @tcsetattr(i32 noundef %5, i32 noundef 0, ptr noundef nonnull @orig_termios) #8
  %7 = icmp eq i32 %6, -1
  br i1 %7, label %8, label %uv__tcsetattr.exit

8:                                                ; preds = %.preheader
  %9 = load i32, ptr %1, align 4
  %10 = icmp eq i32 %9, 4
  br i1 %10, label %.preheader, label %.critedge.i

.critedge.i:                                      ; preds = %8
  %11 = sub nsw i32 0, %9
  br label %uv__tcsetattr.exit

uv__tcsetattr.exit:                               ; preds = %.preheader, %.critedge.i, %4
  %.06 = phi i32 [ 0, %4 ], [ %11, %.critedge.i ], [ 0, %.preheader ]
  store atomic i32 0, ptr @termios_spinlock seq_cst, align 4
  store i32 %2, ptr %1, align 4
  br label %12

12:                                               ; preds = %0, %uv__tcsetattr.exit
  %.0 = phi i32 [ %.06, %uv__tcsetattr.exit ], [ -16, %0 ]
  ret i32 %.0
}